(dp1
S'u_ids_to_collect'
p2
c__builtin__
set
p3
((lp4
I135
aI163
aI133
atRp5
sS'c_ids_collected'
p6
g3
((lp7
I377
aI2363
aI21
aI243
atRp8
sS't_ids_collected'
p9
g3
((lp10
I1
aI66
aI611
aI2
aI3
aI62
aI63
atRp11
sS'u_ids_collected'
p12
g3
((lp13
I123
aI235
aI366
atRp14
s.